target datalayout = "e-m:e-p270:32:32-p271:32:32-p272:64:64-i64:64-i128:128-f80:128-n8:16:32:64-S128"
target triple = "x86_64-pc-linux-gnu"

%struct.AVProbeData = type { ptr, ptr, i32, ptr }

; Function Attrs: nounwind uwtable
define internal i32 @seq_probe(ptr noundef %0) #0 {
  %2 = alloca i32, align 4
  %3 = alloca ptr, align 8
  %4 = alloca i32, align 4
  %5 = alloca i32, align 4
  store ptr %0, ptr %3, align 8, !tbaa !4
  call void @llvm.lifetime.start.p0(i64 4, ptr %4) #4
  %6 = load ptr, ptr %3, align 8, !tbaa !4
  %7 = getelementptr inbounds nuw %struct.AVProbeData, ptr %6, i32 0, i32 2
  %8 = load i32, ptr %7, align 8, !tbaa !9
  %9 = icmp slt i32 %8, 258
  br i1 %9, label %10, label %11

10:                                               ; preds = %1
  store i32 0, ptr %2, align 4
  store i32 1, ptr %5, align 4
  br label %47

11:                                               ; preds = %1
  store i32 0, ptr %4, align 4, !tbaa !13
  br label %12

12:                                               ; preds = %26, %11
  %13 = load i32, ptr %4, align 4, !tbaa !13
  %14 = icmp slt i32 %13, 256
  br i1 %14, label %15, label %29

15:                                               ; preds = %12
  %16 = load ptr, ptr %3, align 8, !tbaa !4
  %17 = getelementptr inbounds nuw %struct.AVProbeData, ptr %16, i32 0, i32 1
  %18 = load ptr, ptr %17, align 8, !tbaa !14
  %19 = load i32, ptr %4, align 4, !tbaa !13
  %20 = sext i32 %19 to i64
  %21 = getelementptr inbounds i8, ptr %18, i64 %20
  %22 = load i8, ptr %21, align 1, !tbaa !15
  %23 = icmp ne i8 %22, 0
  br i1 %23, label %24, label %25

24:                                               ; preds = %15
  store i32 0, ptr %2, align 4
  store i32 1, ptr %5, align 4
  br label %47

25:                                               ; preds = %15
  br label %26

26:                                               ; preds = %25
  %27 = load i32, ptr %4, align 4, !tbaa !13
  %28 = add nsw i32 %27, 1
  store i32 %28, ptr %4, align 4, !tbaa !13
  br label %12, !llvm.loop !16

29:                                               ; preds = %12
  %30 = load ptr, ptr %3, align 8, !tbaa !4
  %31 = getelementptr inbounds nuw %struct.AVProbeData, ptr %30, i32 0, i32 1
  %32 = load ptr, ptr %31, align 8, !tbaa !14
  %33 = getelementptr inbounds i8, ptr %32, i64 256
  %34 = load i8, ptr %33, align 1, !tbaa !15
  %35 = zext i8 %34 to i32
  %36 = icmp eq i32 %35, 0
  br i1 %36, label %37, label %46

37:                                               ; preds = %29
  %38 = load ptr, ptr %3, align 8, !tbaa !4
  %39 = getelementptr inbounds nuw %struct.AVProbeData, ptr %38, i32 0, i32 1
  %40 = load ptr, ptr %39, align 8, !tbaa !14
  %41 = getelementptr inbounds i8, ptr %40, i64 257
  %42 = load i8, ptr %41, align 1, !tbaa !15
  %43 = zext i8 %42 to i32
  %44 = icmp eq i32 %43, 0
  br i1 %44, label %45, label %46

45:                                               ; preds = %37
  store i32 0, ptr %2, align 4
  store i32 1, ptr %5, align 4
  br label %47

46:                                               ; preds = %37, %29
  store i32 25, ptr %2, align 4
  store i32 1, ptr %5, align 4
  br label %47

47:                                               ; preds = %46, %45, %24, %10
  call void @llvm.lifetime.end.p0(i64 4, ptr %4) #4
  %48 = load i32, ptr %2, align 4
  ret i32 %48
}