; Function Attrs: nofree norecurse nosync nounwind memory(read, inaccessiblemem: none) uwtable
define internal range(i32 0, 26) i32 @seq_probe(ptr noundef readonly captures(none) %0) #0 {
  %2 = getelementptr inbounds nuw i8, ptr %0, i64 16
  %3 = load i32, ptr %2, align 8, !tbaa !4
  %4 = icmp slt i32 %3, 258
  br i1 %4, label %.loopexit, label %.preheader

.preheader:                                       ; preds = %1
  %5 = getelementptr inbounds nuw i8, ptr %0, i64 8
  %6 = load ptr, ptr %5, align 8, !tbaa !11
  br label %8

7:                                                ; preds = %8
  %indvars.iv.next = add nuw nsw i64 %indvars.iv, 1
  %exitcond.not = icmp eq i64 %indvars.iv.next, 256
  br i1 %exitcond.not, label %11, label %8, !llvm.loop !12

8:                                                ; preds = %.preheader, %7
  %indvars.iv = phi i64 [ 0, %.preheader ], [ %indvars.iv.next, %7 ]
  %9 = getelementptr inbounds nuw i8, ptr %6, i64 %indvars.iv
  %10 = load i8, ptr %9, align 1, !tbaa !14
  %.not = icmp eq i8 %10, 0
  br i1 %.not, label %7, label %.loopexit

11:                                               ; preds = %7
  %12 = getelementptr inbounds nuw i8, ptr %6, i64 256
  %13 = load i8, ptr %12, align 1, !tbaa !14
  %14 = icmp eq i8 %13, 0
  br i1 %14, label %15, label %19

15:                                               ; preds = %11
  %16 = getelementptr inbounds nuw i8, ptr %6, i64 257
  %17 = load i8, ptr %16, align 1, !tbaa !14
  %18 = icmp eq i8 %17, 0
  br i1 %18, label %.loopexit, label %19

19:                                               ; preds = %15, %11
  br label %.loopexit

.loopexit:                                        ; preds = %8, %15, %1, %19
  %.07 = phi i32 [ 25, %19 ], [ 0, %1 ], [ 0, %15 ], [ 0, %8 ]
  ret i32 %.07
}